; Function Attrs: mustprogress uwtable
define noundef zeroext i1 @_ZN6google8protobuf2io26CopyingOutputStreamAdaptor4NextEPPvPi(ptr nocapture noundef nonnull align 8 dereferenceable(48) %0, ptr nocapture noundef writeonly %1, ptr nocapture noundef writeonly %2) unnamed_addr #5 align 2 {
  %4 = getelementptr inbounds i8, ptr %0, i64 44
  %5 = load i32, ptr %4, align 4
  %6 = getelementptr inbounds i8, ptr %0, i64 40
  %7 = load i32, ptr %6, align 8
  %8 = icmp eq i32 %5, %7
  br i1 %8, label %9, label %_ZN6google8protobuf2io26CopyingOutputStreamAdaptor11WriteBufferEv.exit

9:                                                ; preds = %3
  %10 = getelementptr inbounds i8, ptr %0, i64 17
  %11 = load i8, ptr %10, align 1
  %12 = trunc i8 %11 to i1
  br i1 %12, label %_ZN6google8protobuf2io26CopyingOutputStreamAdaptor11WriteBufferEv.exit.thread, label %13

13:                                               ; preds = %9
  %14 = icmp eq i32 %5, 0
  br i1 %14, label %_ZN6google8protobuf2io26CopyingOutputStreamAdaptor11WriteBufferEv.exit, label %15

15:                                               ; preds = %13
  %16 = getelementptr inbounds i8, ptr %0, i64 8
  %17 = load ptr, ptr %16, align 8
  %18 = getelementptr inbounds i8, ptr %0, i64 32
  %19 = load ptr, ptr %18, align 8
  %20 = load ptr, ptr %17, align 8
  %21 = getelementptr inbounds i8, ptr %20, i64 16
  %22 = load ptr, ptr %21, align 8
  %23 = tail call noundef zeroext i1 %22(ptr noundef nonnull align 8 dereferenceable(8) %17, ptr noundef %19, i32 noundef %5)
  br i1 %23, label %24, label %30

24:                                               ; preds = %15
  %25 = load i32, ptr %4, align 4
  %26 = sext i32 %25 to i64
  %27 = getelementptr inbounds i8, ptr %0, i64 24
  %28 = load i64, ptr %27, align 8
  %29 = add nsw i64 %28, %26
  store i64 %29, ptr %27, align 8
  store i32 0, ptr %4, align 4
  br label %_ZN6google8protobuf2io26CopyingOutputStreamAdaptor11WriteBufferEv.exit

30:                                               ; preds = %15
  store i8 1, ptr %10, align 1
  store i32 0, ptr %4, align 4
  %31 = load ptr, ptr %18, align 8
  store ptr null, ptr %18, align 8
  %.not.i.i.i.i.i = icmp eq ptr %31, null
  br i1 %.not.i.i.i.i.i, label %_ZN6google8protobuf2io26CopyingOutputStreamAdaptor11WriteBufferEv.exit.thread, label %_ZNKSt14default_deleteIA_hEclIhEENSt9enable_ifIXsr14is_convertibleIPA_T_PS0_EE5valueEvE4typeEPS4_.exit.i.i.i.i.i

_ZNKSt14default_deleteIA_hEclIhEENSt9enable_ifIXsr14is_convertibleIPA_T_PS0_EE5valueEvE4typeEPS4_.exit.i.i.i.i.i: ; preds = %30
  tail call void @_ZdaPv(ptr noundef nonnull %31) #17
  br label %_ZN6google8protobuf2io26CopyingOutputStreamAdaptor11WriteBufferEv.exit.thread

_ZN6google8protobuf2io26CopyingOutputStreamAdaptor11WriteBufferEv.exit: ; preds = %24, %13, %3
  %32 = phi i32 [ 0, %24 ], [ 0, %13 ], [ %5, %3 ]
  %33 = getelementptr inbounds i8, ptr %0, i64 32
  %34 = load ptr, ptr %33, align 8
  %.not.i.i = icmp eq ptr %34, null
  br i1 %.not.i.i, label %_ZNSt10unique_ptrIA_hSt14default_deleteIS0_EE5resetIPhvEEvT_.exit.i, label %_ZN6google8protobuf2io26CopyingOutputStreamAdaptor22AllocateBufferIfNeededEv.exit

_ZNSt10unique_ptrIA_hSt14default_deleteIS0_EE5resetIPhvEEvT_.exit.i: ; preds = %_ZN6google8protobuf2io26CopyingOutputStreamAdaptor11WriteBufferEv.exit
  %35 = load i32, ptr %6, align 8
  %36 = sext i32 %35 to i64
  %37 = tail call noalias noundef nonnull ptr @_Znam(i64 noundef %36) #18
  store ptr %37, ptr %33, align 8
  br label %_ZN6google8protobuf2io26CopyingOutputStreamAdaptor22AllocateBufferIfNeededEv.exit

_ZN6google8protobuf2io26CopyingOutputStreamAdaptor22AllocateBufferIfNeededEv.exit: ; preds = %_ZN6google8protobuf2io26CopyingOutputStreamAdaptor11WriteBufferEv.exit, %_ZNSt10unique_ptrIA_hSt14default_deleteIS0_EE5resetIPhvEEvT_.exit.i
  %38 = phi ptr [ %34, %_ZN6google8protobuf2io26CopyingOutputStreamAdaptor11WriteBufferEv.exit ], [ %37, %_ZNSt10unique_ptrIA_hSt14default_deleteIS0_EE5resetIPhvEEvT_.exit.i ]
  %39 = sext i32 %32 to i64
  %40 = getelementptr inbounds i8, ptr %38, i64 %39
  store ptr %40, ptr %1, align 8
  %41 = load i32, ptr %6, align 8
  %42 = load i32, ptr %4, align 4
  %43 = sub nsw i32 %41, %42
  store i32 %43, ptr %2, align 4
  %44 = load i32, ptr %6, align 8
  store i32 %44, ptr %4, align 4
  br label %_ZN6google8protobuf2io26CopyingOutputStreamAdaptor11WriteBufferEv.exit.thread

_ZN6google8protobuf2io26CopyingOutputStreamAdaptor11WriteBufferEv.exit.thread: ; preds = %_ZNKSt14default_deleteIA_hEclIhEENSt9enable_ifIXsr14is_convertibleIPA_T_PS0_EE5valueEvE4typeEPS4_.exit.i.i.i.i.i, %30, %9, %_ZN6google8protobuf2io26CopyingOutputStreamAdaptor22AllocateBufferIfNeededEv.exit
  %.0 = phi i1 [ true, %_ZN6google8protobuf2io26CopyingOutputStreamAdaptor22AllocateBufferIfNeededEv.exit ], [ false, %9 ], [ false, %30 ], [ false, %_ZNKSt14default_deleteIA_hEclIhEENSt9enable_ifIXsr14is_convertibleIPA_T_PS0_EE5valueEvE4typeEPS4_.exit.i.i.i.i.i ]
  ret i1 %.0
}